target datalayout = "e-m:e-p270:32:32-p271:32:32-p272:64:64-i64:64-i128:128-f80:128-n8:16:32:64-S128"
target triple = "x86_64-pc-linux-gnu"

%"class.llvm::StringRef" = type { ptr, i64 }
%"class.llvm::MCObjectStreamer" = type { %"class.llvm::MCStreamer", %"class.std::unique_ptr.20", i8, i8, %"class.llvm::SmallVector.28", %"class.llvm::DenseMap" }
%"class.llvm::MCStreamer" = type { ptr, ptr, %"class.std::unique_ptr.2", %"class.std::vector", %"class.llvm::SmallVector", %"class.std::vector.10", ptr, i64, %"class.llvm::SmallVector.15", ptr, i32, i8, i8, ptr }
%"class.std::unique_ptr.2" = type { %"struct.std::__uniq_ptr_data.3" }
%"struct.std::__uniq_ptr_data.3" = type { %"class.std::__uniq_ptr_impl.4" }
%"class.std::__uniq_ptr_impl.4" = type { %"class.std::tuple.5" }
%"class.std::tuple.5" = type { %"struct.std::_Tuple_impl.6" }
%"struct.std::_Tuple_impl.6" = type { %"struct.std::_Head_base.9" }
%"struct.std::_Head_base.9" = type { ptr }
%"class.std::vector" = type { %"struct.std::_Vector_base" }
%"struct.std::_Vector_base" = type { %"struct.std::_Vector_base<llvm::MCDwarfFrameInfo, std::allocator<llvm::MCDwarfFrameInfo>>::_Vector_impl" }
%"struct.std::_Vector_base<llvm::MCDwarfFrameInfo, std::allocator<llvm::MCDwarfFrameInfo>>::_Vector_impl" = type { %"struct.std::_Vector_base<llvm::MCDwarfFrameInfo, std::allocator<llvm::MCDwarfFrameInfo>>::_Vector_impl_data" }
%"struct.std::_Vector_base<llvm::MCDwarfFrameInfo, std::allocator<llvm::MCDwarfFrameInfo>>::_Vector_impl_data" = type { ptr, ptr, ptr }
%"class.llvm::SmallVector" = type { %"class.llvm::SmallVectorImpl", %"struct.llvm::SmallVectorStorage" }
%"class.llvm::SmallVectorImpl" = type { %"class.llvm::SmallVectorTemplateBase" }
%"class.llvm::SmallVectorTemplateBase" = type { %"class.llvm::SmallVectorTemplateCommon" }
%"class.llvm::SmallVectorTemplateCommon" = type { %"class.llvm::SmallVectorBase" }
%"class.llvm::SmallVectorBase" = type { ptr, i32, i32 }
%"struct.llvm::SmallVectorStorage" = type { [16 x i8] }
%"class.std::vector.10" = type { %"struct.std::_Vector_base.11" }
%"struct.std::_Vector_base.11" = type { %"struct.std::_Vector_base<std::unique_ptr<llvm::WinEH::FrameInfo>, std::allocator<std::unique_ptr<llvm::WinEH::FrameInfo>>>::_Vector_impl" }
%"struct.std::_Vector_base<std::unique_ptr<llvm::WinEH::FrameInfo>, std::allocator<std::unique_ptr<llvm::WinEH::FrameInfo>>>::_Vector_impl" = type { %"struct.std::_Vector_base<std::unique_ptr<llvm::WinEH::FrameInfo>, std::allocator<std::unique_ptr<llvm::WinEH::FrameInfo>>>::_Vector_impl_data" }
%"struct.std::_Vector_base<std::unique_ptr<llvm::WinEH::FrameInfo>, std::allocator<std::unique_ptr<llvm::WinEH::FrameInfo>>>::_Vector_impl_data" = type { ptr, ptr, ptr }
%"class.llvm::SmallVector.15" = type { %"class.llvm::SmallVectorImpl.16", %"struct.llvm::SmallVectorStorage.19" }
%"class.llvm::SmallVectorImpl.16" = type { %"class.llvm::SmallVectorTemplateBase.17" }
%"class.llvm::SmallVectorTemplateBase.17" = type { %"class.llvm::SmallVectorTemplateCommon.18" }
%"class.llvm::SmallVectorTemplateCommon.18" = type { %"class.llvm::SmallVectorBase" }
%"struct.llvm::SmallVectorStorage.19" = type { [128 x i8] }
%"class.std::unique_ptr.20" = type { %"struct.std::__uniq_ptr_data.21" }
%"struct.std::__uniq_ptr_data.21" = type { %"class.std::__uniq_ptr_impl.22" }
%"class.std::__uniq_ptr_impl.22" = type { %"class.std::tuple.23" }
%"class.std::tuple.23" = type { %"struct.std::_Tuple_impl.24" }
%"struct.std::_Tuple_impl.24" = type { %"struct.std::_Head_base.27" }
%"struct.std::_Head_base.27" = type { ptr }
%"class.llvm::SmallVector.28" = type { %"class.llvm::SmallVectorImpl.29", %"struct.llvm::SmallVectorStorage.32" }
%"class.llvm::SmallVectorImpl.29" = type { %"class.llvm::SmallVectorTemplateBase.30" }
%"class.llvm::SmallVectorTemplateBase.30" = type { %"class.llvm::SmallVectorTemplateCommon.31" }
%"class.llvm::SmallVectorTemplateCommon.31" = type { %"class.llvm::SmallVectorBase" }
%"struct.llvm::SmallVectorStorage.32" = type { [80 x i8] }
%"class.llvm::DenseMap" = type <{ ptr, i32, i32, i32, [4 x i8] }>
%"class.llvm::SMLoc" = type { ptr }
%"class.(anonymous namespace)::AArch64ELFStreamer" = type <{ %"class.llvm::MCELFStreamer.base", [7 x i8], %"class.llvm::DenseMap.38", i32, i8, [3 x i8] }>
%"class.llvm::MCELFStreamer.base" = type <{ %"class.llvm::MCObjectStreamer", %"class.llvm::SmallVector.33", %"class.llvm::SmallVector.33", i8 }>
%"class.llvm::SmallVector.33" = type { %"class.llvm::SmallVectorImpl.34", %"struct.llvm::SmallVectorStorage.37" }
%"class.llvm::SmallVectorImpl.34" = type { %"class.llvm::SmallVectorTemplateBase.35" }
%"class.llvm::SmallVectorTemplateBase.35" = type { %"class.llvm::SmallVectorTemplateCommon.36" }
%"class.llvm::SmallVectorTemplateCommon.36" = type { %"class.llvm::SmallVectorBase" }
%"struct.llvm::SmallVectorStorage.37" = type { [3072 x i8] }
%"class.llvm::DenseMap.38" = type <{ ptr, i32, i32, i32, [4 x i8] }>

@.str.1 = private unnamed_addr constant [3 x i8] c"$d\00", align 1

; Function Attrs: mustprogress nounwind uwtable
define linkonce_odr hidden noundef ptr @_ZN4llvm16cast_convert_valINS_11MCSymbolELFEPNS_8MCSymbolES3_E4doitEPKS2_(ptr noundef %0) #0 comdat align 2 {
  %2 = alloca ptr, align 8
  store ptr %0, ptr %2, align 8
  %3 = load ptr, ptr %2, align 8
  ret ptr %3
}

; Function Attrs: mustprogress nounwind uwtable
define linkonce_odr hidden noundef ptr @_ZN4llvm8CastInfoINS_11MCSymbolELFEPNS_8MCSymbolEvE6doCastERKS3_(ptr noundef nonnull align 8 dereferenceable(8) %0) #0 comdat align 2 {
  %2 = alloca ptr, align 8
  store ptr %0, ptr %2, align 8
  %3 = load ptr, ptr %2, align 8
  %4 = load ptr, ptr %3, align 8
  %5 = call noundef ptr @_ZN4llvm16cast_convert_valINS_11MCSymbolELFEPNS_8MCSymbolES3_E4doitEPKS2_(ptr noundef %4)
  ret ptr %5
}

; Function Attrs: mustprogress nounwind uwtable
define linkonce_odr hidden void @_ZN4llvm5SMLocC2Ev(ptr noundef nonnull align 8 dereferenceable(8) %0) unnamed_addr #0 comdat align 2 {
  %2 = alloca ptr, align 8
  store ptr %0, ptr %2, align 8
  %3 = load ptr, ptr %2, align 8
  %4 = getelementptr inbounds nuw %"class.llvm::SMLoc", ptr %3, i32 0, i32 0
  store ptr null, ptr %4, align 8
  ret void
}

; Function Attrs: mustprogress nounwind uwtable
define linkonce_odr hidden noundef ptr @_ZN4llvm4castINS_11MCSymbolELFENS_8MCSymbolEEEDcPT0_(ptr noundef %0) #0 comdat {
  %2 = alloca ptr, align 8
  store ptr %0, ptr %2, align 8
  %3 = call noundef ptr @_ZN4llvm8CastInfoINS_11MCSymbolELFEPNS_8MCSymbolEvE6doCastERKS3_(ptr noundef nonnull align 8 dereferenceable(8) %2)
  ret ptr %3
}

; Function Attrs: mustprogress nounwind uwtable
define linkonce_odr hidden noundef nonnull align 8 dereferenceable(2432) ptr @_ZNK4llvm10MCStreamer10getContextEv(ptr noundef nonnull align 8 dereferenceable(288) %0) #0 comdat align 2 {
  %2 = alloca ptr, align 8
  store ptr %0, ptr %2, align 8
  %3 = load ptr, ptr %2, align 8
  %4 = getelementptr inbounds nuw %"class.llvm::MCStreamer", ptr %3, i32 0, i32 1
  %5 = load ptr, ptr %4, align 8
  ret ptr %5
}

; Function Attrs: mustprogress nounwind uwtable
define linkonce_odr hidden noundef i64 @_ZNSt11char_traitsIcE6lengthEPKc(ptr noundef %0) #0 comdat align 2 {
  %2 = alloca ptr, align 8
  store ptr %0, ptr %2, align 8
  %3 = load ptr, ptr %2, align 8
  %4 = call i64 @strlen(ptr noundef %3) #9
  ret i64 %4
}

; Function Attrs: mustprogress nounwind uwtable
define internal noundef ptr @_ZN12_GLOBAL__N_118AArch64ELFStreamer17emitMappingSymbolEN4llvm9StringRefE(ptr noundef nonnull align 8 dereferenceable(6637) %0, ptr %1, i64 %2) #0 align 2 {
  %4 = alloca %"class.llvm::StringRef", align 8
  %5 = alloca ptr, align 8
  %6 = alloca ptr, align 8
  %7 = alloca %"class.llvm::StringRef", align 8
  %8 = alloca %"class.llvm::SMLoc", align 8
  %9 = getelementptr inbounds nuw { ptr, i64 }, ptr %4, i32 0, i32 0
  store ptr %1, ptr %9, align 8
  %10 = getelementptr inbounds nuw { ptr, i64 }, ptr %4, i32 0, i32 1
  store i64 %2, ptr %10, align 8
  store ptr %0, ptr %5, align 8
  %11 = load ptr, ptr %5, align 8
  %12 = call noundef nonnull align 8 dereferenceable(2432) ptr @_ZNK4llvm10MCStreamer10getContextEv(ptr noundef nonnull align 8 dereferenceable(288) %11)
  call void @llvm.memcpy.p0.p0.i64(ptr align 8 %7, ptr align 8 %4, i64 16, i1 false)
  %13 = getelementptr inbounds nuw { ptr, i64 }, ptr %7, i32 0, i32 0
  %14 = load ptr, ptr %13, align 8
  %15 = getelementptr inbounds nuw { ptr, i64 }, ptr %7, i32 0, i32 1
  %16 = load i64, ptr %15, align 8
  %17 = call noundef ptr @_ZN4llvm9MCContext17createLocalSymbolENS_9StringRefE(ptr noundef nonnull align 8 dereferenceable(2432) %12, ptr %14, i64 %16)
  %18 = call noundef ptr @_ZN4llvm4castINS_11MCSymbolELFENS_8MCSymbolEEEDcPT0_(ptr noundef %17)
  store ptr %18, ptr %6, align 8
  %19 = load ptr, ptr %6, align 8
  call void @llvm.memset.p0.i64(ptr align 8 %8, i8 0, i64 8, i1 false)
  call void @_ZN4llvm5SMLocC2Ev(ptr noundef nonnull align 8 dereferenceable(8) %8) #9
  %20 = getelementptr inbounds nuw %"class.llvm::SMLoc", ptr %8, i32 0, i32 0
  %21 = load ptr, ptr %20, align 8
  %22 = load ptr, ptr %11, align 8
  %23 = getelementptr inbounds ptr, ptr %22, i64 25
  %24 = load ptr, ptr %23, align 8
  call void %24(ptr noundef nonnull align 8 dereferenceable(6601) %11, ptr noundef %19, ptr %21)
  %25 = load ptr, ptr %6, align 8
  ret ptr %25
}

; Function Attrs: mustprogress nounwind uwtable
define linkonce_odr hidden void @_ZN4llvm9StringRefC2EPKc(ptr noundef nonnull align 8 dereferenceable(16) %0, ptr noundef %1) unnamed_addr #0 comdat align 2 {
  %3 = alloca ptr, align 8
  %4 = alloca ptr, align 8
  store ptr %0, ptr %3, align 8
  store ptr %1, ptr %4, align 8
  %5 = load ptr, ptr %3, align 8
  %6 = getelementptr inbounds nuw %"class.llvm::StringRef", ptr %5, i32 0, i32 0
  %7 = load ptr, ptr %4, align 8
  store ptr %7, ptr %6, align 8
  %8 = getelementptr inbounds nuw %"class.llvm::StringRef", ptr %5, i32 0, i32 1
  %9 = load ptr, ptr %4, align 8
  %10 = icmp ne ptr %9, null
  br i1 %10, label %11, label %14

11:                                               ; preds = %2
  %12 = load ptr, ptr %4, align 8
  %13 = call noundef i64 @_ZNSt11char_traitsIcE6lengthEPKc(ptr noundef %12)
  br label %15

14:                                               ; preds = %2
  br label %15

15:                                               ; preds = %14, %11
  %16 = phi i64 [ %13, %11 ], [ 0, %14 ]
  store i64 %16, ptr %8, align 8
  ret void
}

; Function Attrs: mustprogress nounwind uwtable
define internal void @_ZN12_GLOBAL__N_118AArch64ELFStreamer21emitDataMappingSymbolEv(ptr noundef nonnull align 8 dereferenceable(6637) %0) #0 align 2 {
  %2 = alloca ptr, align 8
  %3 = alloca %"class.llvm::StringRef", align 8
  store ptr %0, ptr %2, align 8
  %4 = load ptr, ptr %2, align 8
  %5 = getelementptr inbounds nuw %"class.(anonymous namespace)::AArch64ELFStreamer", ptr %4, i32 0, i32 3
  %6 = load i32, ptr %5, align 8
  %7 = icmp eq i32 %6, 2
  br i1 %7, label %8, label %9

8:                                                ; preds = %1
  br label %16

9:                                                ; preds = %1
  call void @_ZN4llvm9StringRefC2EPKc(ptr noundef nonnull align 8 dereferenceable(16) %3, ptr noundef @.str.1)
  %10 = getelementptr inbounds nuw { ptr, i64 }, ptr %3, i32 0, i32 0
  %11 = load ptr, ptr %10, align 8
  %12 = getelementptr inbounds nuw { ptr, i64 }, ptr %3, i32 0, i32 1
  %13 = load i64, ptr %12, align 8
  %14 = call noundef ptr @_ZN12_GLOBAL__N_118AArch64ELFStreamer17emitMappingSymbolEN4llvm9StringRefE(ptr noundef nonnull align 8 dereferenceable(6637) %4, ptr %11, i64 %13)
  %15 = getelementptr inbounds nuw %"class.(anonymous namespace)::AArch64ELFStreamer", ptr %4, i32 0, i32 3
  store i32 2, ptr %15, align 8
  br label %16

16:                                               ; preds = %9, %8
  ret void
}

; Function Attrs: mustprogress nounwind uwtable
define internal void @_ZN12_GLOBAL__N_118AArch64ELFStreamer8emitFillERKN4llvm6MCExprEmNS1_5SMLocE(ptr noundef nonnull align 8 dereferenceable(6637) %0, ptr noundef nonnull align 8 dereferenceable(16) %1, i64 noundef %2, ptr %3) unnamed_addr #0 align 2 {
  %5 = alloca %"class.llvm::SMLoc", align 8
  %6 = alloca ptr, align 8
  %7 = alloca ptr, align 8
  %8 = alloca i64, align 8
  %9 = alloca %"class.llvm::SMLoc", align 8
  %10 = getelementptr inbounds nuw %"class.llvm::SMLoc", ptr %5, i32 0, i32 0
  store ptr %3, ptr %10, align 8
  store ptr %0, ptr %6, align 8
  store ptr %1, ptr %7, align 8
  store i64 %2, ptr %8, align 8
  %11 = load ptr, ptr %6, align 8
  call void @_ZN12_GLOBAL__N_118AArch64ELFStreamer21emitDataMappingSymbolEv(ptr noundef nonnull align 8 dereferenceable(6637) %11)
  %12 = load ptr, ptr %7, align 8
  %13 = load i64, ptr %8, align 8
  call void @llvm.memcpy.p0.p0.i64(ptr align 8 %9, ptr align 8 %5, i64 8, i1 false)
  %14 = getelementptr inbounds nuw %"class.llvm::SMLoc", ptr %9, i32 0, i32 0
  %15 = load ptr, ptr %14, align 8
  call void @_ZN4llvm16MCObjectStreamer8emitFillERKNS_6MCExprEmNS_5SMLocE(ptr noundef nonnull align 8 dereferenceable(424) %11, ptr noundef nonnull align 8 dereferenceable(16) %12, i64 noundef %13, ptr %15)
  ret void
}