; Function Attrs: mustprogress nounwind uwtable
define internal void @_ZN12_GLOBAL__N_118AArch64ELFStreamer8emitFillERKN4llvm6MCExprEmNS1_5SMLocE(ptr noundef nonnull align 8 dereferenceable(6637) %0, ptr noundef nonnull align 8 dereferenceable(16) %1, i64 noundef %2, ptr %3) unnamed_addr #0 align 2 {
  %5 = getelementptr inbounds nuw i8, ptr %0, i64 6632
  %6 = load i32, ptr %5, align 8
  %7 = icmp eq i32 %6, 2
  br i1 %7, label %_ZN12_GLOBAL__N_118AArch64ELFStreamer21emitDataMappingSymbolEv.exit, label %8

8:                                                ; preds = %4
  %9 = getelementptr inbounds nuw i8, ptr %0, i64 8
  %10 = load ptr, ptr %9, align 8
  %11 = tail call noundef ptr @_ZN4llvm9MCContext17createLocalSymbolENS_9StringRefE(ptr noundef nonnull align 8 dereferenceable(2432) %10, ptr nonnull @.str.1, i64 2) #12
  %12 = load ptr, ptr %0, align 8
  %13 = getelementptr inbounds i8, ptr %12, i64 200
  %14 = load ptr, ptr %13, align 8
  tail call void %14(ptr noundef nonnull align 8 dereferenceable(6601) %0, ptr noundef %11, ptr null) #12
  store i32 2, ptr %5, align 8
  br label %_ZN12_GLOBAL__N_118AArch64ELFStreamer21emitDataMappingSymbolEv.exit

_ZN12_GLOBAL__N_118AArch64ELFStreamer21emitDataMappingSymbolEv.exit: ; preds = %4, %8
  tail call void @_ZN4llvm16MCObjectStreamer8emitFillERKNS_6MCExprEmNS_5SMLocE(ptr noundef nonnull align 8 dereferenceable(424) %0, ptr noundef nonnull align 8 dereferenceable(16) %1, i64 noundef %2, ptr %3) #12
  ret void
}